target datalayout = "e-m:e-p270:32:32-p271:32:32-p272:64:64-i64:64-i128:128-f80:128-n8:16:32:64-S128"
target triple = "x86_64-pc-linux-gnu"

%struct.Vec_Ptr_t_ = type { i32, i32, ptr }
%struct.Vec_Int_t_ = type { i32, i32, ptr }
%struct.Vec_Flt_t_ = type { i32, i32, ptr }
%struct.Vec_Vec_t_ = type { i32, i32, ptr }
%struct.SC_Surface_ = type { ptr, %struct.Vec_Flt_t_, %struct.Vec_Flt_t_, %struct.Vec_Ptr_t_, %struct.Vec_Int_t_, %struct.Vec_Int_t_, %struct.Vec_Ptr_t_, [3 x [6 x float]] }

; Function Attrs: inlinehint nounwind uwtable
define internal void @Vec_PtrErase(ptr noundef %0) #1 {
  %2 = alloca ptr, align 8
  store ptr %0, ptr %2, align 8, !tbaa !125
  %3 = load ptr, ptr %2, align 8, !tbaa !125
  %4 = getelementptr inbounds nuw %struct.Vec_Ptr_t_, ptr %3, i32 0, i32 2
  %5 = load ptr, ptr %4, align 8, !tbaa !127
  %6 = icmp ne ptr %5, null
  br i1 %6, label %7, label %13

7:                                                ; preds = %1
  %8 = load ptr, ptr %2, align 8, !tbaa !125
  %9 = getelementptr inbounds nuw %struct.Vec_Ptr_t_, ptr %8, i32 0, i32 2
  %10 = load ptr, ptr %9, align 8, !tbaa !127
  call void @free(ptr noundef %10) #12
  %11 = load ptr, ptr %2, align 8, !tbaa !125
  %12 = getelementptr inbounds nuw %struct.Vec_Ptr_t_, ptr %11, i32 0, i32 2
  store ptr null, ptr %12, align 8, !tbaa !127
  br label %14

13:                                               ; preds = %1
  br label %14

14:                                               ; preds = %13, %7
  %15 = load ptr, ptr %2, align 8, !tbaa !125
  %16 = getelementptr inbounds nuw %struct.Vec_Ptr_t_, ptr %15, i32 0, i32 1
  store i32 0, ptr %16, align 4, !tbaa !126
  %17 = load ptr, ptr %2, align 8, !tbaa !125
  %18 = getelementptr inbounds nuw %struct.Vec_Ptr_t_, ptr %17, i32 0, i32 0
  store i32 0, ptr %18, align 8, !tbaa !132
  ret void
}

; Function Attrs: inlinehint nounwind uwtable
define internal void @Vec_PtrFree(ptr noundef %0) #1 {
  %2 = alloca ptr, align 8
  store ptr %0, ptr %2, align 8, !tbaa !125
  %3 = load ptr, ptr %2, align 8, !tbaa !125
  %4 = getelementptr inbounds nuw %struct.Vec_Ptr_t_, ptr %3, i32 0, i32 2
  %5 = load ptr, ptr %4, align 8, !tbaa !127
  %6 = icmp ne ptr %5, null
  br i1 %6, label %7, label %13

7:                                                ; preds = %1
  %8 = load ptr, ptr %2, align 8, !tbaa !125
  %9 = getelementptr inbounds nuw %struct.Vec_Ptr_t_, ptr %8, i32 0, i32 2
  %10 = load ptr, ptr %9, align 8, !tbaa !127
  call void @free(ptr noundef %10) #12
  %11 = load ptr, ptr %2, align 8, !tbaa !125
  %12 = getelementptr inbounds nuw %struct.Vec_Ptr_t_, ptr %11, i32 0, i32 2
  store ptr null, ptr %12, align 8, !tbaa !127
  br label %14

13:                                               ; preds = %1
  br label %14

14:                                               ; preds = %13, %7
  %15 = load ptr, ptr %2, align 8, !tbaa !125
  %16 = icmp ne ptr %15, null
  br i1 %16, label %17, label %19

17:                                               ; preds = %14
  %18 = load ptr, ptr %2, align 8, !tbaa !125
  call void @free(ptr noundef %18) #12
  store ptr null, ptr %2, align 8, !tbaa !125
  br label %20

19:                                               ; preds = %14
  br label %20

20:                                               ; preds = %19, %17
  ret void
}

; Function Attrs: inlinehint nounwind uwtable
define internal ptr @Vec_VecEntry(ptr noundef %0, i32 noundef %1) #1 {
  %3 = alloca ptr, align 8
  %4 = alloca i32, align 4
  store ptr %0, ptr %3, align 8, !tbaa !151
  store i32 %1, ptr %4, align 4, !tbaa !29
  %5 = load ptr, ptr %3, align 8, !tbaa !151
  %6 = getelementptr inbounds nuw %struct.Vec_Vec_t_, ptr %5, i32 0, i32 2
  %7 = load ptr, ptr %6, align 8, !tbaa !156
  %8 = load i32, ptr %4, align 4, !tbaa !29
  %9 = sext i32 %8 to i64
  %10 = getelementptr inbounds ptr, ptr %7, i64 %9
  %11 = load ptr, ptr %10, align 8, !tbaa !128
  ret ptr %11
}

; Function Attrs: inlinehint nounwind uwtable
define internal i32 @Vec_VecSize(ptr noundef %0) #1 {
  %2 = alloca ptr, align 8
  store ptr %0, ptr %2, align 8, !tbaa !151
  %3 = load ptr, ptr %2, align 8, !tbaa !151
  %4 = getelementptr inbounds nuw %struct.Vec_Vec_t_, ptr %3, i32 0, i32 1
  %5 = load i32, ptr %4, align 4, !tbaa !154
  ret i32 %5
}

; Function Attrs: inlinehint nounwind uwtable
define internal void @Vec_VecErase(ptr noundef %0) #1 {
  %2 = alloca ptr, align 8
  %3 = alloca ptr, align 8
  %4 = alloca i32, align 4
  store ptr %0, ptr %2, align 8, !tbaa !151
  call void @llvm.lifetime.start.p0(i64 8, ptr %3) #12
  call void @llvm.lifetime.start.p0(i64 4, ptr %4) #12
  store i32 0, ptr %4, align 4, !tbaa !29
  br label %5

5:                                                ; preds = %22, %1
  %6 = load i32, ptr %4, align 4, !tbaa !29
  %7 = load ptr, ptr %2, align 8, !tbaa !151
  %8 = call i32 @Vec_VecSize(ptr noundef %7)
  %9 = icmp slt i32 %6, %8
  br i1 %9, label %10, label %14

10:                                               ; preds = %5
  %11 = load ptr, ptr %2, align 8, !tbaa !151
  %12 = load i32, ptr %4, align 4, !tbaa !29
  %13 = call ptr @Vec_VecEntry(ptr noundef %11, i32 noundef %12)
  store ptr %13, ptr %3, align 8, !tbaa !125
  br label %14

14:                                               ; preds = %10, %5
  %15 = phi i1 [ false, %5 ], [ true, %10 ]
  br i1 %15, label %16, label %25

16:                                               ; preds = %14
  %17 = load ptr, ptr %3, align 8, !tbaa !125
  %18 = icmp ne ptr %17, null
  br i1 %18, label %19, label %21

19:                                               ; preds = %16
  %20 = load ptr, ptr %3, align 8, !tbaa !125
  call void @Vec_PtrFree(ptr noundef %20)
  br label %21

21:                                               ; preds = %19, %16
  br label %22

22:                                               ; preds = %21
  %23 = load i32, ptr %4, align 4, !tbaa !29
  %24 = add nsw i32 %23, 1
  store i32 %24, ptr %4, align 4, !tbaa !29
  br label %5, !llvm.loop !153

25:                                               ; preds = %14
  %26 = load ptr, ptr %2, align 8, !tbaa !151
  call void @Vec_PtrErase(ptr noundef %26)
  call void @llvm.lifetime.end.p0(i64 4, ptr %4) #12
  call void @llvm.lifetime.end.p0(i64 8, ptr %3) #12
  ret void
}

; Function Attrs: inlinehint nounwind uwtable
define internal void @Vec_IntErase(ptr noundef %0) #1 {
  %2 = alloca ptr, align 8
  store ptr %0, ptr %2, align 8, !tbaa !141
  %3 = load ptr, ptr %2, align 8, !tbaa !141
  %4 = getelementptr inbounds nuw %struct.Vec_Int_t_, ptr %3, i32 0, i32 2
  %5 = load ptr, ptr %4, align 8, !tbaa !142
  %6 = icmp ne ptr %5, null
  br i1 %6, label %7, label %13

7:                                                ; preds = %1
  %8 = load ptr, ptr %2, align 8, !tbaa !141
  %9 = getelementptr inbounds nuw %struct.Vec_Int_t_, ptr %8, i32 0, i32 2
  %10 = load ptr, ptr %9, align 8, !tbaa !142
  call void @free(ptr noundef %10) #12
  %11 = load ptr, ptr %2, align 8, !tbaa !141
  %12 = getelementptr inbounds nuw %struct.Vec_Int_t_, ptr %11, i32 0, i32 2
  store ptr null, ptr %12, align 8, !tbaa !142
  br label %14

13:                                               ; preds = %1
  br label %14

14:                                               ; preds = %13, %7
  %15 = load ptr, ptr %2, align 8, !tbaa !141
  %16 = getelementptr inbounds nuw %struct.Vec_Int_t_, ptr %15, i32 0, i32 1
  store i32 0, ptr %16, align 4, !tbaa !143
  %17 = load ptr, ptr %2, align 8, !tbaa !141
  %18 = getelementptr inbounds nuw %struct.Vec_Int_t_, ptr %17, i32 0, i32 0
  store i32 0, ptr %18, align 8, !tbaa !144
  ret void
}

; Function Attrs: inlinehint nounwind uwtable
define internal void @Vec_FltErase(ptr noundef %0) #1 {
  %2 = alloca ptr, align 8
  store ptr %0, ptr %2, align 8, !tbaa !145
  %3 = load ptr, ptr %2, align 8, !tbaa !145
  %4 = getelementptr inbounds nuw %struct.Vec_Flt_t_, ptr %3, i32 0, i32 2
  %5 = load ptr, ptr %4, align 8, !tbaa !147
  %6 = icmp ne ptr %5, null
  br i1 %6, label %7, label %13

7:                                                ; preds = %1
  %8 = load ptr, ptr %2, align 8, !tbaa !145
  %9 = getelementptr inbounds nuw %struct.Vec_Flt_t_, ptr %8, i32 0, i32 2
  %10 = load ptr, ptr %9, align 8, !tbaa !147
  call void @free(ptr noundef %10) #12
  %11 = load ptr, ptr %2, align 8, !tbaa !145
  %12 = getelementptr inbounds nuw %struct.Vec_Flt_t_, ptr %11, i32 0, i32 2
  store ptr null, ptr %12, align 8, !tbaa !147
  br label %14

13:                                               ; preds = %1
  br label %14

14:                                               ; preds = %13, %7
  %15 = load ptr, ptr %2, align 8, !tbaa !145
  %16 = getelementptr inbounds nuw %struct.Vec_Flt_t_, ptr %15, i32 0, i32 1
  store i32 0, ptr %16, align 4, !tbaa !148
  %17 = load ptr, ptr %2, align 8, !tbaa !145
  %18 = getelementptr inbounds nuw %struct.Vec_Flt_t_, ptr %17, i32 0, i32 0
  store i32 0, ptr %18, align 8, !tbaa !149
  ret void
}

; Function Attrs: inlinehint nounwind uwtable
define internal void @Abc_SclSurfaceFree(ptr noundef %0) #1 {
  %2 = alloca ptr, align 8
  store ptr %0, ptr %2, align 8, !tbaa !179
  %3 = load ptr, ptr %2, align 8, !tbaa !179
  %4 = getelementptr inbounds nuw %struct.SC_Surface_, ptr %3, i32 0, i32 1
  call void @Vec_FltErase(ptr noundef %4)
  %5 = load ptr, ptr %2, align 8, !tbaa !179
  %6 = getelementptr inbounds nuw %struct.SC_Surface_, ptr %5, i32 0, i32 2
  call void @Vec_FltErase(ptr noundef %6)
  %7 = load ptr, ptr %2, align 8, !tbaa !179
  %8 = getelementptr inbounds nuw %struct.SC_Surface_, ptr %7, i32 0, i32 4
  call void @Vec_IntErase(ptr noundef %8)
  %9 = load ptr, ptr %2, align 8, !tbaa !179
  %10 = getelementptr inbounds nuw %struct.SC_Surface_, ptr %9, i32 0, i32 5
  call void @Vec_IntErase(ptr noundef %10)
  %11 = load ptr, ptr %2, align 8, !tbaa !179
  %12 = getelementptr inbounds nuw %struct.SC_Surface_, ptr %11, i32 0, i32 3
  call void @Vec_VecErase(ptr noundef %12)
  %13 = load ptr, ptr %2, align 8, !tbaa !179
  %14 = getelementptr inbounds nuw %struct.SC_Surface_, ptr %13, i32 0, i32 6
  call void @Vec_VecErase(ptr noundef %14)
  %15 = load ptr, ptr %2, align 8, !tbaa !179
  %16 = getelementptr inbounds nuw %struct.SC_Surface_, ptr %15, i32 0, i32 0
  %17 = load ptr, ptr %16, align 8, !tbaa !181
  %18 = icmp ne ptr %17, null
  br i1 %18, label %19, label %25

19:                                               ; preds = %1
  %20 = load ptr, ptr %2, align 8, !tbaa !179
  %21 = getelementptr inbounds nuw %struct.SC_Surface_, ptr %20, i32 0, i32 0
  %22 = load ptr, ptr %21, align 8, !tbaa !181
  call void @free(ptr noundef %22) #12
  %23 = load ptr, ptr %2, align 8, !tbaa !179
  %24 = getelementptr inbounds nuw %struct.SC_Surface_, ptr %23, i32 0, i32 0
  store ptr null, ptr %24, align 8, !tbaa !181
  br label %26

25:                                               ; preds = %1
  br label %26

26:                                               ; preds = %25, %19
  ret void
}