; Function Attrs: inlinehint nounwind uwtable
define internal fastcc void @Abc_SclSurfaceFree(ptr noundef captures(none) initializes((8, 16), (24, 32), (56, 64), (72, 80)) %0) unnamed_addr #2 {
  %2 = getelementptr inbounds nuw i8, ptr %0, i64 8
  %3 = getelementptr inbounds nuw i8, ptr %0, i64 16
  %4 = load ptr, ptr %3, align 8, !tbaa !33
  %.not.i = icmp eq ptr %4, null
  br i1 %.not.i, label %Vec_FltErase.exit, label %5

5:                                                ; preds = %1
  tail call void @free(ptr noundef nonnull %4) #12
  store ptr null, ptr %3, align 8, !tbaa !33
  br label %Vec_FltErase.exit

Vec_FltErase.exit:                                ; preds = %1, %5
  %6 = getelementptr inbounds nuw i8, ptr %0, i64 12
  store i32 0, ptr %6, align 4, !tbaa !36
  store i32 0, ptr %2, align 8, !tbaa !37
  %7 = getelementptr inbounds nuw i8, ptr %0, i64 24
  %8 = getelementptr inbounds nuw i8, ptr %0, i64 32
  %9 = load ptr, ptr %8, align 8, !tbaa !33
  %.not.i9 = icmp eq ptr %9, null
  br i1 %.not.i9, label %Vec_FltErase.exit10, label %10

10:                                               ; preds = %Vec_FltErase.exit
  tail call void @free(ptr noundef nonnull %9) #12
  store ptr null, ptr %8, align 8, !tbaa !33
  br label %Vec_FltErase.exit10

Vec_FltErase.exit10:                              ; preds = %Vec_FltErase.exit, %10
  %11 = getelementptr inbounds nuw i8, ptr %0, i64 28
  store i32 0, ptr %11, align 4, !tbaa !36
  store i32 0, ptr %7, align 8, !tbaa !37
  %12 = getelementptr inbounds nuw i8, ptr %0, i64 56
  %13 = getelementptr inbounds nuw i8, ptr %0, i64 64
  %14 = load ptr, ptr %13, align 8, !tbaa !29
  %.not.i11 = icmp eq ptr %14, null
  br i1 %.not.i11, label %Vec_IntErase.exit, label %15

15:                                               ; preds = %Vec_FltErase.exit10
  tail call void @free(ptr noundef nonnull %14) #12
  store ptr null, ptr %13, align 8, !tbaa !29
  br label %Vec_IntErase.exit

Vec_IntErase.exit:                                ; preds = %Vec_FltErase.exit10, %15
  %16 = getelementptr inbounds nuw i8, ptr %0, i64 60
  store i32 0, ptr %16, align 4, !tbaa !31
  store i32 0, ptr %12, align 8, !tbaa !32
  %17 = getelementptr inbounds nuw i8, ptr %0, i64 72
  %18 = getelementptr inbounds nuw i8, ptr %0, i64 80
  %19 = load ptr, ptr %18, align 8, !tbaa !29
  %.not.i12 = icmp eq ptr %19, null
  br i1 %.not.i12, label %Vec_IntErase.exit13, label %20

20:                                               ; preds = %Vec_IntErase.exit
  tail call void @free(ptr noundef nonnull %19) #12
  store ptr null, ptr %18, align 8, !tbaa !29
  br label %Vec_IntErase.exit13

Vec_IntErase.exit13:                              ; preds = %Vec_IntErase.exit, %20
  %21 = getelementptr inbounds nuw i8, ptr %0, i64 76
  store i32 0, ptr %21, align 4, !tbaa !31
  store i32 0, ptr %17, align 8, !tbaa !32
  %22 = getelementptr inbounds nuw i8, ptr %0, i64 40
  %23 = getelementptr i8, ptr %0, i64 44
  %.val10.i = load i32, ptr %23, align 4, !tbaa !47
  %24 = icmp sgt i32 %.val10.i, 0
  br i1 %24, label %.lr.ph.i, label %.critedge.i

.lr.ph.i:                                         ; preds = %Vec_IntErase.exit13
  %25 = getelementptr i8, ptr %0, i64 48
  br label %26

26:                                               ; preds = %33, %.lr.ph.i
  %.val13.i = phi i32 [ %.val10.i, %.lr.ph.i ], [ %.val.i, %33 ]
  %indvars.iv.i = phi i64 [ 0, %.lr.ph.i ], [ %indvars.iv.next.i, %33 ]
  %.val8.i = load ptr, ptr %25, align 8, !tbaa !49
  %27 = getelementptr inbounds nuw ptr, ptr %.val8.i, i64 %indvars.iv.i
  %28 = load ptr, ptr %27, align 8, !tbaa !28
  %.not.i14 = icmp eq ptr %28, null
  br i1 %.not.i14, label %33, label %29

29:                                               ; preds = %26
  %30 = getelementptr inbounds nuw i8, ptr %28, i64 8
  %31 = load ptr, ptr %30, align 8, !tbaa !27
  %.not.i.i = icmp eq ptr %31, null
  br i1 %.not.i.i, label %Vec_PtrFree.exit.i, label %32

32:                                               ; preds = %29
  tail call void @free(ptr noundef nonnull %31) #12
  br label %Vec_PtrFree.exit.i

Vec_PtrFree.exit.i:                               ; preds = %32, %29
  tail call void @free(ptr noundef nonnull %28) #12
  %.val.pre.i = load i32, ptr %23, align 4, !tbaa !47
  br label %33

33:                                               ; preds = %Vec_PtrFree.exit.i, %26
  %.val.i = phi i32 [ %.val13.i, %26 ], [ %.val.pre.i, %Vec_PtrFree.exit.i ]
  %indvars.iv.next.i = add nuw nsw i64 %indvars.iv.i, 1
  %34 = sext i32 %.val.i to i64
  %35 = icmp slt i64 %indvars.iv.next.i, %34
  br i1 %35, label %26, label %.critedge.i, !llvm.loop !50

.critedge.i:                                      ; preds = %33, %Vec_IntErase.exit13
  %36 = getelementptr inbounds nuw i8, ptr %0, i64 48
  %37 = load ptr, ptr %36, align 8, !tbaa !27
  %.not.i9.i = icmp eq ptr %37, null
  br i1 %.not.i9.i, label %Vec_VecErase.exit, label %38

38:                                               ; preds = %.critedge.i
  tail call void @free(ptr noundef nonnull %37) #12
  store ptr null, ptr %36, align 8, !tbaa !27
  br label %Vec_VecErase.exit

Vec_VecErase.exit:                                ; preds = %.critedge.i, %38
  store i32 0, ptr %23, align 4, !tbaa !25
  store i32 0, ptr %22, align 8, !tbaa !42
  %39 = getelementptr inbounds nuw i8, ptr %0, i64 88
  %40 = getelementptr i8, ptr %0, i64 92
  %.val10.i15 = load i32, ptr %40, align 4, !tbaa !47
  %41 = icmp sgt i32 %.val10.i15, 0
  br i1 %41, label %.lr.ph.i18, label %.critedge.i16

.lr.ph.i18:                                       ; preds = %Vec_VecErase.exit
  %42 = getelementptr i8, ptr %0, i64 96
  br label %43

43:                                               ; preds = %50, %.lr.ph.i18
  %.val13.i19 = phi i32 [ %.val10.i15, %.lr.ph.i18 ], [ %.val.i26, %50 ]
  %indvars.iv.i20 = phi i64 [ 0, %.lr.ph.i18 ], [ %indvars.iv.next.i27, %50 ]
  %.val8.i21 = load ptr, ptr %42, align 8, !tbaa !49
  %44 = getelementptr inbounds nuw ptr, ptr %.val8.i21, i64 %indvars.iv.i20
  %45 = load ptr, ptr %44, align 8, !tbaa !28
  %.not.i22 = icmp eq ptr %45, null
  br i1 %.not.i22, label %50, label %46

46:                                               ; preds = %43
  %47 = getelementptr inbounds nuw i8, ptr %45, i64 8
  %48 = load ptr, ptr %47, align 8, !tbaa !27
  %.not.i.i23 = icmp eq ptr %48, null
  br i1 %.not.i.i23, label %Vec_PtrFree.exit.i24, label %49

49:                                               ; preds = %46
  tail call void @free(ptr noundef nonnull %48) #12
  br label %Vec_PtrFree.exit.i24

Vec_PtrFree.exit.i24:                             ; preds = %49, %46
  tail call void @free(ptr noundef nonnull %45) #12
  %.val.pre.i25 = load i32, ptr %40, align 4, !tbaa !47
  br label %50

50:                                               ; preds = %Vec_PtrFree.exit.i24, %43
  %.val.i26 = phi i32 [ %.val13.i19, %43 ], [ %.val.pre.i25, %Vec_PtrFree.exit.i24 ]
  %indvars.iv.next.i27 = add nuw nsw i64 %indvars.iv.i20, 1
  %51 = sext i32 %.val.i26 to i64
  %52 = icmp slt i64 %indvars.iv.next.i27, %51
  br i1 %52, label %43, label %.critedge.i16, !llvm.loop !50

.critedge.i16:                                    ; preds = %50, %Vec_VecErase.exit
  %53 = getelementptr inbounds nuw i8, ptr %0, i64 96
  %54 = load ptr, ptr %53, align 8, !tbaa !27
  %.not.i9.i17 = icmp eq ptr %54, null
  br i1 %.not.i9.i17, label %Vec_VecErase.exit28, label %55

55:                                               ; preds = %.critedge.i16
  tail call void @free(ptr noundef nonnull %54) #12
  store ptr null, ptr %53, align 8, !tbaa !27
  br label %Vec_VecErase.exit28

Vec_VecErase.exit28:                              ; preds = %.critedge.i16, %55
  store i32 0, ptr %40, align 4, !tbaa !25
  store i32 0, ptr %39, align 8, !tbaa !42
  %56 = load ptr, ptr %0, align 8, !tbaa !129
  %.not = icmp eq ptr %56, null
  br i1 %.not, label %58, label %57

57:                                               ; preds = %Vec_VecErase.exit28
  tail call void @free(ptr noundef nonnull %56) #12
  store ptr null, ptr %0, align 8, !tbaa !129
  br label %58

58:                                               ; preds = %Vec_VecErase.exit28, %57
  ret void
}